; Function Attrs: mustprogress uwtable
define hidden void @_ZN3fmt3v1113buffered_file5closeEv(ptr noundef nonnull align 8 captures(none) dereferenceable(8) %0) local_unnamed_addr #5 align 2 personality ptr @__gxx_personality_v0 {
  %2 = load ptr, ptr %0, align 8, !tbaa !4
  %.not = icmp eq ptr %2, null
  br i1 %.not, label %12, label %3

3:                                                ; preds = %1
  %4 = tail call i32 @fclose(ptr noundef nonnull %2)
  store ptr null, ptr %0, align 8, !tbaa !4
  %.not5 = icmp eq i32 %4, 0
  br i1 %.not5, label %12, label %5

5:                                                ; preds = %3
  %6 = tail call ptr @__cxa_allocate_exception(i64 32) #32
  %7 = tail call ptr @__errno_location() #31
  %8 = load i32, ptr %7, align 4, !tbaa !10
  invoke void @_ZN3fmt3v1112system_errorIJEEESt12system_erroriNS0_7fstringIJDpT_EE1tEDpOS4_(ptr dead_on_unwind writable sret(%"class.std::system_error") align 8 %6, i32 noundef %8, ptr nonnull @.str, i64 17)
          to label %9 unwind label %10

9:                                                ; preds = %5
  tail call void @__cxa_throw(ptr %6, ptr nonnull @_ZTISt12system_error, ptr nonnull @_ZNSt12system_errorD1Ev) #35
  unreachable

10:                                               ; preds = %5
  %11 = landingpad { ptr, i32 }
          cleanup
  tail call void @__cxa_free_exception(ptr %6) #32
  resume { ptr, i32 } %11

12:                                               ; preds = %3, %1
  ret void
}